target datalayout = "e-m:e-p270:32:32-p271:32:32-p272:64:64-i64:64-i128:128-f80:128-n8:16:32:64-S128"
target triple = "x86_64-pc-linux-gnu"

; Function Attrs: nounwind sspstrong uwtable
define internal void @gdb_sigterm_handler(i32 noundef %0) #0 {
  %2 = alloca i32, align 4
  store i32 %0, ptr %2, align 4
  %3 = call zeroext i1 @runstate_is_running()
  br i1 %3, label %4, label %6

4:                                                ; preds = %1
  %5 = call i32 @vm_stop(i32 noundef 4)
  br label %6

6:                                                ; preds = %4, %1
  ret void
}