; Function Attrs: nounwind sspstrong uwtable
define internal void @gdb_sigterm_handler(i32 %0) #2 {
  %2 = tail call zeroext i1 @runstate_is_running() #16
  br i1 %2, label %3, label %5

3:                                                ; preds = %1
  %4 = tail call i32 @vm_stop(i32 noundef 4) #16
  br label %5

5:                                                ; preds = %3, %1
  ret void
}